Certificate:
    Data:
        Version: 3 (0x2)
        Serial Number: 1 (0x1)
    Signature Algorithm: sha256WithRSAEncryption
        Issuer: C=CN, ST=Beijing, L=Beijing, O=gjingxi, OU=gjingxi, CN=center/emailAddress=ibopo@126.com
        Validity
            Not Before: Aug 30 08:26:21 2016 GMT
            Not After : Aug 28 08:26:21 2026 GMT
        Subject: C=CN, ST=Beijing, L=Beijing, O=gjingxi, OU=gjingxi, CN=*.gjingxi.com/emailAddress=ibopo@126.com
        Subject Public Key Info:
            Public Key Algorithm: rsaEncryption
                Public-Key: (1024 bit)
                Modulus:
                    00:ed:f6:69:8e:0c:dc:60:9c:3b:06:95:58:d8:40:
                    71:5f:57:5b:cf:63:74:dd:d6:9d:44:c1:94:82:c4:
                    63:a5:20:f6:d5:6e:4d:63:e3:ee:80:1d:78:38:be:
                    cc:7d:d9:56:a9:13:2d:6a:0d:a2:70:dd:94:c7:a8:
                    ea:54:7e:5c:1f:79:37:a6:ff:dc:0c:97:f3:77:92:
                    b3:11:60:67:eb:f3:ff:64:9c:1f:de:ce:99:b2:10:
                    c1:fc:5a:c7:b4:33:c4:aa:cf:9a:0d:75:bc:38:0b:
                    d4:91:cd:f9:b0:8d:6d:ee:1c:7c:1c:0d:b2:13:fe:
                    13:30:09:49:d4:e2:fe:ad:af
                Exponent: 65537 (0x10001)
        X509v3 extensions:
            X509v3 Basic Constraints: 
                CA:FALSE
            Netscape Comment: 
                OpenSSL Generated Certificate
            X509v3 Subject Key Identifier: 
                DD:67:D6:49:0D:DD:4A:29:44:CA:28:26:E1:0C:65:60:A5:15:49:1C
            X509v3 Authority Key Identifier: 
                keyid:9B:86:65:5B:4F:2D:BF:89:36:E5:E3:97:35:CC:68:D2:08:5D:15:90

    Signature Algorithm: sha256WithRSAEncryption
         b4:14:f3:62:5d:fb:08:cf:70:01:8c:33:36:77:d9:9c:63:32:
         3b:7b:88:f3:66:33:30:02:da:e4:ab:f1:ae:f4:7d:ad:e8:f4:
         2d:ff:f5:f5:08:6b:f6:15:0d:a5:9f:82:0b:31:cc:32:e5:77:
         b9:ad:49:2e:c8:a9:d4:1b:64:28:15:65:08:f0:e5:d0:bd:3d:
         24:bc:d4:48:68:15:c8:c0:bb:6c:79:03:71:c3:1a:3c:a3:84:
         b9:f2:00:64:07:b3:a5:37:fe:27:14:11:47:b7:99:53:d6:ef:
         00:9a:58:a6:c4:a8:0b:10:7e:4b:d8:a5:f7:72:80:f9:a1:7a:
         5f:9f:0f:5b:83:6e:5b:00:69:46:a4:5a:6f:28:24:be:3d:b7:
         ab:e6:b5:00:b0:fd:83:52:5b:23:5b:62:74:9a:ea:26:90:ae:
         1d:08:a8:4e:af:49:2d:dc:a8:31:4b:87:32:55:f2:05:e7:e0:
         ec:8b:ab:26:62:fc:1d:f4:a8:8e:a5:ac:21:3e:a9:77:53:d4:
         66:8d:6c:c4:d0:2f:14:0d:05:6e:0b:5f:df:7a:ff:77:ab:02:
         ba:44:82:60:e7:bc:4e:bf:e2:95:d2:e1:cb:0d:c2:1a:99:46:
         15:23:44:ca:b9:44:10:8a:86:9d:9e:48:c8:7a:9e:8a:ee:2c:
         8a:e1:ef:58
-----BEGIN CERTIFICATE-----
MIIDgzCCAmugAwIBAgIBATANBgkqhkiG9w0BAQsFADCBhDELMAkGA1UEBhMCQ04x
EDAOBgNVBAgMB0JlaWppbmcxEDAOBgNVBAcMB0JlaWppbmcxEDAOBgNVBAoMB2dq
aW5neGkxEDAOBgNVBAsMB2dqaW5neGkxDzANBgNVBAMMBmNlbnRlcjEcMBoGCSqG
SIb3DQEJARYNaWJvcG9AMTI2LmNvbTAeFw0xNjA4MzAwODI2MjFaFw0yNjA4Mjgw
ODI2MjFaMIGLMQswCQYDVQQGEwJDTjEQMA4GA1UECAwHQmVpamluZzEQMA4GA1UE
BwwHQmVpamluZzEQMA4GA1UECgwHZ2ppbmd4aTEQMA4GA1UECwwHZ2ppbmd4aTEW
MBQGA1UEAwwNKi5namluZ3hpLmNvbTEcMBoGCSqGSIb3DQEJARYNaWJvcG9AMTI2
LmNvbTCBnzANBgkqhkiG9w0BAQEFAAOBjQAwgYkCgYEA7fZpjgzcYJw7BpVY2EBx
X1dbz2N03dadRMGUgsRjpSD21W5NY+PugB14OL7MfdlWqRMtag2icN2Ux6jqVH5c
H3k3pv/cDJfzd5KzEWBn6/P/ZJwf3s6ZshDB/FrHtDPEqs+aDXW8OAvUkc35sI1t
7hx8HA2yE/4TMAlJ1OL+ra8CAwEAAaN7MHkwCQYDVR0TBAIwADAsBglghkgBhvhC
AQ0EHxYdT3BlblNTTCBHZW5lcmF0ZWQgQ2VydGlmaWNhdGUwHQYDVR0OBBYEFN1n
1kkN3UopRMooJuEMZWClFUkcMB8GA1UdIwQYMBaAFJuGZVtPLb+JNuXjlzXMaNII
XRWQMA0GCSqGSIb3DQEBCwUAA4IBAQC0FPNiXfsIz3ABjDM2d9mcYzI7e4jzZjMw
Atrkq/Gu9H2t6PQt//X1CGv2FQ2ln4ILMcwy5Xe5rUkuyKnUG2QoFWUI8OXQvT0k
vNRIaBXIwLtseQNxwxo8o4S58gBkB7OlN/4nFBFHt5lT1u8AmlimxKgLEH5L2KX3
coD5oXpfnw9bg25bAGlGpFpvKCS+Pber5rUAsP2DUlsjW2J0muomkK4dCKhOr0kt
3KgxS4cyVfIF5+Dsi6smYvwd9KiOpawhPql3U9RmjWzE0C8UDQVuC1/fev93qwK6
RIJg57xOv+KV0uHLDcIamUYVI0TKuUQQioadnkjIep6K7iyK4e9Y
-----END CERTIFICATE-----
