Certificate:
    Data:
        Version: 3 (0x2)
        Serial Number: 2 (0x2)
    Signature Algorithm: sha256WithRSAEncryption
        Issuer: C=CN, ST=Beijing, L=Beijing, O=gjingxi, OU=gjingxi, CN=center/emailAddress=ibopo@126.com
        Validity
            Not Before: Aug 30 08:26:31 2016 GMT
            Not After : Aug 28 08:26:31 2026 GMT
        Subject: C=CN, ST=Beijing, L=Beijing, O=gjingxi, OU=gjingxi, CN=client/emailAddress=ibopo@126.com
        Subject Public Key Info:
            Public Key Algorithm: rsaEncryption
                Public-Key: (2048 bit)
                Modulus:
                    00:c3:21:9c:cf:c5:4e:10:fc:60:c2:5d:fb:72:ca:
                    3c:81:4d:0d:49:29:8e:df:81:08:c9:7f:04:80:fd:
                    71:56:f7:55:4a:c1:ac:0d:91:39:76:37:81:b5:72:
                    c0:2f:47:f1:72:65:6d:60:71:a2:9b:7c:1c:67:5f:
                    a8:26:56:b6:88:ed:36:f5:1e:3c:ce:04:e4:7c:d3:
                    fc:dc:f3:59:31:6e:95:b2:44:de:ee:82:11:46:eb:
                    c0:10:13:d9:df:7b:be:dd:cb:26:ee:d3:6e:2b:b8:
                    e9:8a:22:22:ec:e9:94:7f:75:38:33:17:59:37:cc:
                    dd:18:df:c7:3e:67:9c:18:f5:5a:8d:09:1f:cb:c6:
                    d7:29:b7:4f:3f:8d:e6:0e:eb:d2:2d:df:96:7f:ba:
                    e1:ae:47:69:92:87:bb:e9:3d:2e:1a:8b:10:e6:62:
                    f5:61:8e:72:36:a8:8c:cf:4a:b9:f2:28:eb:9b:3b:
                    b9:76:77:d2:c9:64:62:ac:f8:77:b0:18:7d:74:c4:
                    b9:1e:c7:6e:db:05:35:02:87:5d:6a:0f:7d:1c:6f:
                    de:2c:03:ca:3a:aa:6f:84:26:9e:fb:77:92:df:fd:
                    70:7a:4d:37:3b:81:7c:a6:26:1d:3f:e4:7e:4d:cb:
                    fe:bf:b7:01:0e:4a:3b:89:f8:0c:e6:1e:07:fc:0f:
                    30:5d
                Exponent: 65537 (0x10001)
        X509v3 extensions:
            X509v3 Basic Constraints: 
                CA:FALSE
            Netscape Comment: 
                OpenSSL Generated Certificate
            X509v3 Subject Key Identifier: 
                C0:4C:3D:87:8D:12:D0:48:0B:07:7F:0F:45:3D:16:A3:EF:67:53:54
            X509v3 Authority Key Identifier: 
                keyid:9B:86:65:5B:4F:2D:BF:89:36:E5:E3:97:35:CC:68:D2:08:5D:15:90

    Signature Algorithm: sha256WithRSAEncryption
         0a:ce:46:e8:b4:db:8d:df:96:bb:19:e4:f9:f0:38:03:cc:bd:
         2b:2e:b1:1b:6a:d0:fb:b7:b9:64:a1:9e:a3:7e:e0:70:e7:a9:
         ab:cf:d8:84:7f:07:26:5b:9e:34:f5:1f:4b:ee:fa:b0:fc:03:
         cf:66:a2:47:09:4c:48:d0:d5:35:ef:bd:76:61:b2:2b:58:92:
         9a:ee:36:4a:00:ee:3b:b6:ea:51:a2:b5:cd:9e:de:28:a0:bc:
         e4:59:83:c3:35:56:8e:76:37:11:dc:ef:29:c9:c3:d9:29:b1:
         ab:9f:09:77:cc:fb:60:63:b0:7c:1b:b8:87:9e:76:42:70:f5:
         b1:09:ec:f3:0d:c9:ac:f2:95:23:13:a2:e7:3d:cd:b3:b3:6e:
         4f:2e:66:06:99:55:0a:ea:52:d8:ef:81:d4:43:79:4c:ef:c9:
         63:3d:b7:f5:17:3f:10:d4:b8:87:0a:0b:01:78:5b:a5:68:60:
         83:ae:8a:5e:c1:fc:55:56:fc:41:a3:c3:b0:98:ca:69:5a:5d:
         14:35:c9:cd:68:14:ba:f9:27:1a:f1:e9:94:24:6f:b2:43:22:
         d8:0f:fc:93:2a:8e:ef:d6:1a:d0:31:42:31:03:70:0f:5f:5f:
         5e:6c:e4:60:d8:41:d6:f5:15:9b:d4:5c:17:d2:ed:76:94:a6:
         ce:fc:6c:8e
-----BEGIN CERTIFICATE-----
MIIEADCCAuigAwIBAgIBAjANBgkqhkiG9w0BAQsFADCBhDELMAkGA1UEBhMCQ04x
EDAOBgNVBAgMB0JlaWppbmcxEDAOBgNVBAcMB0JlaWppbmcxEDAOBgNVBAoMB2dq
aW5neGkxEDAOBgNVBAsMB2dqaW5neGkxDzANBgNVBAMMBmNlbnRlcjEcMBoGCSqG
SIb3DQEJARYNaWJvcG9AMTI2LmNvbTAeFw0xNjA4MzAwODI2MzFaFw0yNjA4Mjgw
ODI2MzFaMIGEMQswCQYDVQQGEwJDTjEQMA4GA1UECAwHQmVpamluZzEQMA4GA1UE
BwwHQmVpamluZzEQMA4GA1UECgwHZ2ppbmd4aTEQMA4GA1UECwwHZ2ppbmd4aTEP
MA0GA1UEAwwGY2xpZW50MRwwGgYJKoZIhvcNAQkBFg1pYm9wb0AxMjYuY29tMIIB
IjANBgkqhkiG9w0BAQEFAAOCAQ8AMIIBCgKCAQEAwyGcz8VOEPxgwl37cso8gU0N
SSmO34EIyX8EgP1xVvdVSsGsDZE5djeBtXLAL0fxcmVtYHGim3wcZ1+oJla2iO02
9R48zgTkfNP83PNZMW6VskTe7oIRRuvAEBPZ33u+3csm7tNuK7jpiiIi7OmUf3U4
MxdZN8zdGN/HPmecGPVajQkfy8bXKbdPP43mDuvSLd+Wf7rhrkdpkoe76T0uGosQ
5mL1YY5yNqiMz0q58ijrmzu5dnfSyWRirPh3sBh9dMS5Hsdu2wU1Aoddag99HG/e
LAPKOqpvhCae+3eS3/1wek03O4F8piYdP+R+Tcv+v7cBDko7ifgM5h4H/A8wXQID
AQABo3sweTAJBgNVHRMEAjAAMCwGCWCGSAGG+EIBDQQfFh1PcGVuU1NMIEdlbmVy
YXRlZCBDZXJ0aWZpY2F0ZTAdBgNVHQ4EFgQUwEw9h40S0EgLB38PRT0Wo+9nU1Qw
HwYDVR0jBBgwFoAUm4ZlW08tv4k25eOXNcxo0ghdFZAwDQYJKoZIhvcNAQELBQAD
ggEBAArORui0243flrsZ5PnwOAPMvSsusRtq0Pu3uWShnqN+4HDnqavP2IR/ByZb
njT1H0vu+rD8A89mokcJTEjQ1TXvvXZhsitYkpruNkoA7ju26lGitc2e3iigvORZ
g8M1Vo52NxHc7ynJw9kpsaufCXfM+2BjsHwbuIeedkJw9bEJ7PMNyazylSMTouc9
zbOzbk8uZgaZVQrqUtjvgdRDeUzvyWM9t/UXPxDUuIcKCwF4W6VoYIOuil7B/FVW
/EGjw7CYymlaXRQ1yc1oFLr5Jxrx6ZQkb7JDItgP/JMqju/WGtAxQjEDcA9fX15s
5GDYQdb1FZvUXBfS7XaUps78bI4=
-----END CERTIFICATE-----
